; Function Attrs: mustprogress nounwind uwtable
define dso_local void @_ZN4llvm16DecodePSHUFBMaskENS_8ArrayRefImEERKNS_5APIntERNS_15SmallVectorImplIiEE(ptr readonly captures(none) %0, i64 %1, ptr noundef nonnull readonly align 8 captures(none) dereferenceable(12) %2, ptr noundef nonnull align 8 dereferenceable(16) %3) local_unnamed_addr #0 {
  %5 = trunc i64 %1 to i32
  %6 = icmp sgt i32 %5, 0
  br i1 %6, label %.lr.ph, label %._crit_edge

.lr.ph:                                           ; preds = %4
  %7 = getelementptr inbounds nuw i8, ptr %2, i64 8
  %8 = getelementptr inbounds nuw i8, ptr %3, i64 16
  %wide.trip.count = and i64 %1, 2147483647
  br label %9

9:                                                ; preds = %.lr.ph, %_ZN4llvm23SmallVectorTemplateBaseIiLb1EE9push_backEi.exit
  %indvars.iv = phi i64 [ 0, %.lr.ph ], [ %indvars.iv.next, %_ZN4llvm23SmallVectorTemplateBaseIiLb1EE9push_backEi.exit ]
  %10 = getelementptr inbounds nuw i64, ptr %0, i64 %indvars.iv
  %11 = load i64, ptr %10, align 8
  %12 = trunc nuw nsw i64 %indvars.iv to i32
  %13 = and i64 %indvars.iv, 63
  %14 = shl nuw i64 1, %13
  %15 = load i32, ptr %7, align 8
  %16 = icmp ult i32 %15, 65
  %17 = load ptr, ptr %2, align 8
  %18 = lshr i64 %indvars.iv, 6
  %19 = and i64 %18, 67108863
  %20 = getelementptr inbounds nuw i64, ptr %17, i64 %19
  %.in.i.i = select i1 %16, ptr %2, ptr %20
  %21 = load i64, ptr %.in.i.i, align 8
  %22 = and i64 %21, %14
  %.not17 = icmp eq i64 %22, 0
  br i1 %.not17, label %27, label %23

23:                                               ; preds = %9
  %24 = tail call noundef i64 @_ZNK4llvm15SmallVectorBaseIjE4sizeEv(ptr noundef nonnull align 8 dereferenceable(16) %3) #4
  %25 = add i64 %24, 1
  %26 = tail call noundef i64 @_ZNK4llvm15SmallVectorBaseIjE8capacityEv(ptr noundef nonnull align 8 dereferenceable(16) %3) #4
  %.not.i.i.i = icmp ugt i64 %25, %26
  br i1 %.not.i.i.i, label %_ZN4llvm23SmallVectorTemplateBaseIiLb1EE9push_backEi.exit.sink.split, label %_ZN4llvm23SmallVectorTemplateBaseIiLb1EE9push_backEi.exit

27:                                               ; preds = %9
  %28 = and i64 %11, 128
  %.not = icmp eq i64 %28, 0
  br i1 %.not, label %33, label %29

29:                                               ; preds = %27
  %30 = tail call noundef i64 @_ZNK4llvm15SmallVectorBaseIjE4sizeEv(ptr noundef nonnull align 8 dereferenceable(16) %3) #4
  %31 = add i64 %30, 1
  %32 = tail call noundef i64 @_ZNK4llvm15SmallVectorBaseIjE8capacityEv(ptr noundef nonnull align 8 dereferenceable(16) %3) #4
  %.not.i.i.i13 = icmp ugt i64 %31, %32
  br i1 %.not.i.i.i13, label %_ZN4llvm23SmallVectorTemplateBaseIiLb1EE9push_backEi.exit.sink.split, label %_ZN4llvm23SmallVectorTemplateBaseIiLb1EE9push_backEi.exit

33:                                               ; preds = %27
  %34 = and i32 %12, 2147483632
  %35 = trunc i64 %11 to i32
  %36 = and i32 %35, 15
  %37 = or disjoint i32 %36, %34
  %38 = tail call noundef i64 @_ZNK4llvm15SmallVectorBaseIjE4sizeEv(ptr noundef nonnull align 8 dereferenceable(16) %3) #4
  %39 = add i64 %38, 1
  %40 = tail call noundef i64 @_ZNK4llvm15SmallVectorBaseIjE8capacityEv(ptr noundef nonnull align 8 dereferenceable(16) %3) #4
  %.not.i.i.i15 = icmp ugt i64 %39, %40
  br i1 %.not.i.i.i15, label %_ZN4llvm23SmallVectorTemplateBaseIiLb1EE9push_backEi.exit.sink.split, label %_ZN4llvm23SmallVectorTemplateBaseIiLb1EE9push_backEi.exit

_ZN4llvm23SmallVectorTemplateBaseIiLb1EE9push_backEi.exit.sink.split: ; preds = %33, %29, %23
  %.sink24 = phi i64 [ %25, %23 ], [ %31, %29 ], [ %39, %33 ]
  %.sink.ph = phi i32 [ -1, %23 ], [ -2, %29 ], [ %37, %33 ]
  tail call void @_ZN4llvm15SmallVectorBaseIjE8grow_podEPvmm(ptr noundef nonnull align 8 dereferenceable(16) %3, ptr noundef nonnull %8, i64 noundef %.sink24, i64 noundef 4) #4
  br label %_ZN4llvm23SmallVectorTemplateBaseIiLb1EE9push_backEi.exit

_ZN4llvm23SmallVectorTemplateBaseIiLb1EE9push_backEi.exit: ; preds = %_ZN4llvm23SmallVectorTemplateBaseIiLb1EE9push_backEi.exit.sink.split, %33, %29, %23
  %.sink = phi i32 [ -1, %23 ], [ -2, %29 ], [ %37, %33 ], [ %.sink.ph, %_ZN4llvm23SmallVectorTemplateBaseIiLb1EE9push_backEi.exit.sink.split ]
  %41 = load ptr, ptr %3, align 8
  %42 = tail call noundef i64 @_ZNK4llvm15SmallVectorBaseIjE4sizeEv(ptr noundef nonnull align 8 dereferenceable(16) %3) #4
  %43 = getelementptr inbounds i32, ptr %41, i64 %42
  store i32 %.sink, ptr %43, align 1
  %44 = tail call noundef i64 @_ZNK4llvm15SmallVectorBaseIjE4sizeEv(ptr noundef nonnull align 8 dereferenceable(16) %3) #4
  %45 = add i64 %44, 1
  tail call void @_ZN4llvm15SmallVectorBaseIjE8set_sizeEm(ptr noundef nonnull align 8 dereferenceable(16) %3, i64 noundef %45) #4
  %indvars.iv.next = add nuw nsw i64 %indvars.iv, 1
  %exitcond.not = icmp eq i64 %indvars.iv.next, %wide.trip.count
  br i1 %exitcond.not, label %._crit_edge, label %9, !llvm.loop !45

._crit_edge:                                      ; preds = %_ZN4llvm23SmallVectorTemplateBaseIiLb1EE9push_backEi.exit, %4
  ret void
}